target datalayout = "e-m:e-p270:32:32-p271:32:32-p272:64:64-i64:64-i128:128-f80:128-n8:16:32:64-S128"
target triple = "x86_64-pc-linux-gnu"

%struct.VVCFrameParamSets = type { ptr, ptr, %struct.VVCPH, [8 x ptr], %struct.VVCLMCS, ptr }
%struct.VVCPH = type { ptr, ptr, i32, i32, i8, [3 x i16], i8, [3 x i16], %struct.PredWeightTable }
%struct.PredWeightTable = type { [2 x i8], [2 x i8], [2 x [2 x [15 x i8]]], [2 x [3 x [15 x i16]]], [2 x [3 x [15 x i16]]] }
%struct.VVCLMCS = type { i8, i8, %union.anon, %union.anon, [17 x i16], [16 x i16] }
%union.anon = type { [4096 x i16] }

; Function Attrs: nounwind uwtable
define void @ff_vvc_frame_ps_free(ptr noundef %0) #0 {
  %2 = alloca ptr, align 8
  %3 = alloca i32, align 4
  store ptr %0, ptr %2, align 8, !tbaa !4
  %4 = load ptr, ptr %2, align 8, !tbaa !4
  %5 = getelementptr inbounds nuw %struct.VVCFrameParamSets, ptr %4, i32 0, i32 0
  call void @av_refstruct_unref(ptr noundef %5)
  %6 = load ptr, ptr %2, align 8, !tbaa !4
  %7 = getelementptr inbounds nuw %struct.VVCFrameParamSets, ptr %6, i32 0, i32 1
  call void @av_refstruct_unref(ptr noundef %7)
  %8 = load ptr, ptr %2, align 8, !tbaa !4
  %9 = getelementptr inbounds nuw %struct.VVCFrameParamSets, ptr %8, i32 0, i32 2
  %10 = getelementptr inbounds nuw %struct.VVCPH, ptr %9, i32 0, i32 1
  call void @av_refstruct_unref(ptr noundef %10)
  %11 = load ptr, ptr %2, align 8, !tbaa !4
  %12 = getelementptr inbounds nuw %struct.VVCFrameParamSets, ptr %11, i32 0, i32 5
  call void @av_refstruct_unref(ptr noundef %12)
  call void @llvm.lifetime.start.p0(i64 4, ptr %3) #10
  store i32 0, ptr %3, align 4, !tbaa !11
  br label %13

13:                                               ; preds = %24, %1
  %14 = load i32, ptr %3, align 4, !tbaa !11
  %15 = sext i32 %14 to i64
  %16 = icmp ult i64 %15, 8
  br i1 %16, label %18, label %17

17:                                               ; preds = %13
  call void @llvm.lifetime.end.p0(i64 4, ptr %3) #10
  br label %27

18:                                               ; preds = %13
  %19 = load ptr, ptr %2, align 8, !tbaa !4
  %20 = getelementptr inbounds nuw %struct.VVCFrameParamSets, ptr %19, i32 0, i32 3
  %21 = load i32, ptr %3, align 4, !tbaa !11
  %22 = sext i32 %21 to i64
  %23 = getelementptr inbounds [8 x ptr], ptr %20, i64 0, i64 %22
  call void @av_refstruct_unref(ptr noundef %23)
  br label %24

24:                                               ; preds = %18
  %25 = load i32, ptr %3, align 4, !tbaa !11
  %26 = add nsw i32 %25, 1
  store i32 %26, ptr %3, align 4, !tbaa !11
  br label %13, !llvm.loop !100

27:                                               ; preds = %17
  ret void
}