; Function Attrs: nounwind uwtable
define void @ff_vvc_frame_ps_free(ptr noundef %0) local_unnamed_addr #0 {
  tail call void @av_refstruct_unref(ptr noundef %0) #8
  %2 = getelementptr inbounds nuw i8, ptr %0, i64 8
  tail call void @av_refstruct_unref(ptr noundef nonnull %2) #8
  %3 = getelementptr inbounds nuw i8, ptr %0, i64 24
  tail call void @av_refstruct_unref(ptr noundef nonnull %3) #8
  %4 = getelementptr inbounds nuw i8, ptr %0, i64 17000
  tail call void @av_refstruct_unref(ptr noundef nonnull %4) #8
  %5 = getelementptr inbounds nuw i8, ptr %0, i64 480
  br label %7

6:                                                ; preds = %7
  ret void

7:                                                ; preds = %1, %7
  %indvars.iv = phi i64 [ 0, %1 ], [ %indvars.iv.next, %7 ]
  %8 = getelementptr inbounds nuw [8 x ptr], ptr %5, i64 0, i64 %indvars.iv
  tail call void @av_refstruct_unref(ptr noundef nonnull %8) #8
  %indvars.iv.next = add nuw nsw i64 %indvars.iv, 1
  %exitcond.not = icmp eq i64 %indvars.iv.next, 8
  br i1 %exitcond.not, label %6, label %7, !llvm.loop !257
}